EXPORTS
??0?$skill_array_interface@I@GNET@@QAE@ABV01@@Z
??0?$skill_array_interface@I@GNET@@QAE@XZ
??0?$skill_array_interface@U?$pair@IH@std@@@GNET@@QAE@ABV01@@Z
??0?$skill_array_interface@U?$pair@IH@std@@@GNET@@QAE@XZ
??0ElementSkill@GNET@@QAE@$$QAV01@@Z
??0ElementSkill@GNET@@QAE@ABV01@@Z
??0ElementSkill@GNET@@QAE@XZ
??0SkillStr@GNET@@QAE@$$QAV01@@Z
??0SkillStr@GNET@@QAE@ABV01@@Z
??0SkillStr@GNET@@QAE@XZ
??0TeamState@GNET@@QAE@$$QAV01@@Z
??0TeamState@GNET@@QAE@ABV01@@Z
??0TeamState@GNET@@QAE@XZ
??0VisibleState@GNET@@QAE@$$QAV01@@Z
??0VisibleState@GNET@@QAE@ABV01@@Z
??0VisibleState@GNET@@QAE@XZ
??1?$skill_array_interface@I@GNET@@UAE@XZ
??1?$skill_array_interface@U?$pair@IH@std@@@GNET@@UAE@XZ
??4ElementSkill@GNET@@QAEAAV01@$$QAV01@@Z
??4ElementSkill@GNET@@QAEAAV01@ABV01@@Z
??4SkillStr@GNET@@QAEAAV01@$$QAV01@@Z
??4SkillStr@GNET@@QAEAAV01@ABV01@@Z
??4TeamState@GNET@@QAEAAV01@$$QAV01@@Z
??4TeamState@GNET@@QAEAAV01@ABV01@@Z
??4VisibleState@GNET@@QAEAAV01@$$QAV01@@Z
??4VisibleState@GNET@@QAEAAV01@ABV01@@Z
??_7?$skill_array_interface@I@GNET@@6B@
??_7?$skill_array_interface@U?$pair@IH@std@@@GNET@@6B@
??_7ElementSkill@GNET@@6B@
??_7SkillStr@GNET@@6B@
??_7TeamState@GNET@@6B@
??_7VisibleState@GNET@@6B@
?CheckComboSkExtraCondition@ElementSkill@GNET@@UAE_NXZ
?CheckHpCondition@ElementSkill@GNET@@UAE_NHH@Z
?Condition@ElementSkill@GNET@@QAEHAAUUseRequirement@2@@Z
?Condition@ElementSkill@GNET@@SAHIAAUUseRequirement@2@H@Z
?Create@ElementSkill@GNET@@SAPAV12@IH@Z
?Destroy@ElementSkill@GNET@@QAEXXZ
?Find@SkillStr@GNET@@UBEPA_WH@Z
?GetAbility@ElementSkill@GNET@@SAHI@Z
?GetAbilityPercent@ElementSkill@GNET@@SAHI@Z
?GetAllowForms@ElementSkill@GNET@@UAEDXZ
?GetApCost@ElementSkill@GNET@@UAEHXZ
?GetArrowCost@ElementSkill@GNET@@UAEHXZ
?GetCDLimit@ElementSkill@GNET@@UAEHXZ
?GetCastEnv@ElementSkill@GNET@@UAEHXZ
?GetCls@ElementSkill@GNET@@UBEHXZ
?GetClsLimit@ElementSkill@GNET@@UAEHXZ
?GetComboSkActivated@ElementSkill@GNET@@SAXABUComboSkillState@2@AAV?$skill_array_interface@U?$pair@IH@std@@@2@@Z
?GetComboSkPreSkill@ElementSkill@GNET@@SAHI@Z
?GetComboSkPreSkill@ElementSkill@GNET@@UAEHXZ
?GetCommonCoolDown@ElementSkill@GNET@@SAHI@Z
?GetCommonCoolDown@ElementSkill@GNET@@UAEHXZ
?GetCommonCoolDownTime@ElementSkill@GNET@@SAHI@Z
?GetCommonCoolDownTime@ElementSkill@GNET@@UAEHXZ
?GetCoolDownLimit@ElementSkill@GNET@@UAEHXZ
?GetCoolingTime@ElementSkill@GNET@@UAEHXZ
?GetCostShieldEnergy@ElementSkill@GNET@@UAEHXZ
?GetEffect@ElementSkill@GNET@@SAPBDI@Z
?GetEffect@ElementSkill@GNET@@UAEPBDXZ
?GetEffect@VisibleState@GNET@@UBEPBDXZ
?GetElseEffect@ElementSkill@GNET@@SAPBDI@Z
?GetElseEffect@ElementSkill@GNET@@UAEPBDXZ
?GetExecuteTime@ElementSkill@GNET@@SAHIH@Z
?GetExecuteTime@ElementSkill@GNET@@UAEHXZ
?GetFeature@ElementSkill@GNET@@UAEHXZ
?GetFixPointCallRadius@ElementSkill@GNET@@UAEMXZ
?GetFixPointCallSummonPetMouseIconID@ElementSkill@GNET@@UAEHXZ
?GetGfxFileName@ElementSkill@GNET@@SAPBDH@Z
?GetGfxHangPoint@ElementSkill@GNET@@SAPBDH@Z
?GetGfxTarget@ElementSkill@GNET@@SADH@Z
?GetHH@VisibleState@GNET@@UBEPBDXZ
?GetID@TeamState@GNET@@UBE?BHXZ
?GetID@VisibleState@GNET@@UBE?BHXZ
?GetIcon@ElementSkill@GNET@@SAPBDI@Z
?GetIcon@ElementSkill@GNET@@UAEPBDXZ
?GetIcon@TeamState@GNET@@UBEPBDXZ
?GetInherentSkills@ElementSkill@GNET@@SAXHAAV?$skill_array_interface@I@2@@Z
?GetIntroduction@ElementSkill@GNET@@SAPB_WIHPA_WIABVSkillStr@2@@Z
?GetIntroduction@ElementSkill@GNET@@UAEPB_WPA_WHABVSkillStr@2@@Z
?GetItemCost@ElementSkill@GNET@@SAHI@Z
?GetItemCost@ElementSkill@GNET@@UAEHXZ
?GetItemCostCount@ElementSkill@GNET@@UAEHXZ
?GetJunior@ElementSkill@GNET@@QAEXIAAV?$skill_array_interface@U?$pair@IH@std@@@2@@Z
?GetJunior@ElementSkill@GNET@@UBEXAAV?$skill_array_interface@U?$pair@IH@std@@@2@@Z
?GetJuniorAt@ElementSkill@GNET@@UBEPBU?$pair@IH@std@@H@Z
?GetJuniorCount@ElementSkill@GNET@@UBEHXZ
?GetLevel@ElementSkill@GNET@@SAHI@Z
?GetMaxAbility@ElementSkill@GNET@@SAHIH@Z
?GetMaxLevel@ElementSkill@GNET@@UAEHXZ
?GetMpCost@ElementSkill@GNET@@UAEHXZ
?GetName@ElementSkill@GNET@@SAPB_WI@Z
?GetName@ElementSkill@GNET@@UAEPB_WXZ
?GetName@TeamState@GNET@@UBEPB_WXZ
?GetName@VisibleState@GNET@@UBEPB_WXZ
?GetNativeName@ElementSkill@GNET@@SAPBDI@Z
?GetNativeName@ElementSkill@GNET@@UAEPBDXZ
?GetNotuseInCombat@ElementSkill@GNET@@UAE_NXZ
?GetPrayRange@ElementSkill@GNET@@UAEMMMMHH@Z
?GetRangeType@ElementSkill@GNET@@UAEHXZ
?GetRank@ElementSkill@GNET@@UAEHXZ
?GetRealApCost@ElementSkill@GNET@@UAEHH@Z
?GetRequiredBook@ElementSkill@GNET@@SAHIH@Z
?GetRequiredBook@ElementSkill@GNET@@UAEHXZ
?GetRequiredGenius@ElementSkill@GNET@@UAEPAHH@Z
?GetRequiredLevel@ElementSkill@GNET@@SAHIH@Z
?GetRequiredLevel@ElementSkill@GNET@@UAEHXZ
?GetRequiredMoney@ElementSkill@GNET@@SAHIH@Z
?GetRequiredMoney@ElementSkill@GNET@@UAEHXZ
?GetRequiredRealmLevel@ElementSkill@GNET@@SAHIH@Z
?GetRequiredRealmLevel@ElementSkill@GNET@@UAEHXZ
?GetRequiredSp@ElementSkill@GNET@@SAHIH@Z
?GetRequiredSp@ElementSkill@GNET@@UAEHXZ
?GetShowOrder@ElementSkill@GNET@@UAEHXZ
?GetSkillRuneAttr@ElementSkill@GNET@@SAHH@Z
?GetTargetType@ElementSkill@GNET@@UAEHXZ
?GetType@ElementSkill@GNET@@SADI@Z
?GetType@ElementSkill@GNET@@UBEDXZ
?GetVersion@ElementSkill@GNET@@SAHXZ
?GoblinCondition@ElementSkill@GNET@@SAHIAAUGoblinUseRequirement@2@H@Z
?GoblinLearn@ElementSkill@GNET@@SAHIAAUGoblinRequirement@2@H@Z
?InitGetSkillLevelFunPtr@ElementSkill@GNET@@SAXP6AHH@Z@Z
?InitStaticData@ElementSkill@GNET@@SAXXZ
?Interrupt@ElementSkill@GNET@@UAE_NXZ
?IsAllowAir@ElementSkill@GNET@@UAE_NXZ
?IsAllowLand@ElementSkill@GNET@@UAE_NXZ
?IsAllowWater@ElementSkill@GNET@@UAE_NXZ
?IsAutoAttack@ElementSkill@GNET@@UAE_NXZ
?IsDurative@ElementSkill@GNET@@UAE_NXZ
?IsGoblinSkill@ElementSkill@GNET@@SA_NI@Z
?IsIndependent@ElementSkill@GNET@@UAE_NXZ
?IsInstant@ElementSkill@GNET@@UAE_NXZ
?IsMovingSkill@ElementSkill@GNET@@SA_NI@Z
?IsMovingSkill@ElementSkill@GNET@@UAE_NXZ
?IsOverridden@ElementSkill@GNET@@SA_NI@Z
?IsValidForm@ElementSkill@GNET@@QAE_ND@Z
?IsValidForm@ElementSkill@GNET@@SA_NID@Z
?IsWarmup@ElementSkill@GNET@@UAE_NXZ
?LearnCondition@ElementSkill@GNET@@SAHIAAULearnRequirement@2@H@Z
?LoadSkillData@ElementSkill@GNET@@SAXPAX@Z
?NextSkill@ElementSkill@GNET@@SAII@Z
?PetLearn@ElementSkill@GNET@@SAHIAAUPetRequirement@2@H@Z
?Query@TeamState@GNET@@SAPBV12@H@Z
?Query@VisibleState@GNET@@SAPBV12@HH@Z
?SetAbility@ElementSkill@GNET@@SAHIH@Z
?SetDynlevel@ElementSkill@GNET@@UAEXH@Z
?SetForm@ElementSkill@GNET@@UAEXH@Z
?SetLevel@ElementSkill@GNET@@SAHIH@Z
?SetLevel@ElementSkill@GNET@@UAEHH@Z
?SetRuneLevel@ElementSkill@GNET@@UAEXH@Z
?SkillTimer@GNET@@YAXXZ
?ValidWeapon@ElementSkill@GNET@@UBE_NH@Z
?assign@?$skill_array_interface@I@GNET@@QAEXABV?$vector@IV?$allocator@I@std@@@std@@@Z
?assign@?$skill_array_interface@I@GNET@@QAEXPBII@Z
?assign@?$skill_array_interface@U?$pair@IH@std@@@GNET@@QAEXABV?$vector@U?$pair@IH@std@@V?$allocator@U?$pair@IH@std@@@2@@std@@@Z
?assign@?$skill_array_interface@U?$pair@IH@std@@@GNET@@QAEXPBU?$pair@IH@std@@I@Z